	.file	"factorial.cc"
	.text
#APP
	.globl _ZSt21ios_base_library_initv
#NO_APP
	.globl	_Z9factoriali
	.type	_Z9factoriali, @function
_Z9factoriali:
.LFB1983:
	.cfi_startproc
	pushq	%rbp
	.cfi_def_cfa_offset 16
	.cfi_offset 6, -16
	movq	%rsp, %rbp
	.cfi_def_cfa_register 6
	pushq	%rbx
	subq	$24, %rsp
	.cfi_offset 3, -24
	movl	%edi, -20(%rbp)
	cmpl	$0, -20(%rbp)
	jne	.L2
	movl	$1, %eax
	jmp	.L3
.L2:
	movl	-20(%rbp), %eax
	movslq	%eax, %rbx
	movl	-20(%rbp), %eax
	subl	$1, %eax
	movl	%eax, %edi
	call	_Z9factoriali
	imulq	%rbx, %rax
.L3:
	movq	-8(%rbp), %rbx
	leave
	.cfi_def_cfa 7, 8
	ret
	.cfi_endproc
.LFE1983:
	.size	_Z9factoriali, .-_Z9factoriali
	.globl	main
	.type	main, @function
main:
.LFB1984:
	.cfi_startproc
	pushq	%rbp
	.cfi_def_cfa_offset 16
	.cfi_offset 6, -16
	movq	%rsp, %rbp
	.cfi_def_cfa_register 6
	movl	$20, %edi
	call	_Z9factoriali
	movq	%rax, %rsi
	movl	$_ZSt4cout, %edi
	call	_ZNSolsEy
	movl	$10, %esi
	movq	%rax, %rdi
	call	_ZStlsISt11char_traitsIcEERSt13basic_ostreamIcT_ES5_c
	movl	$0, %eax
	popq	%rbp
	.cfi_def_cfa 7, 8
	ret
	.cfi_endproc
.LFE1984:
	.size	main, .-main
	.section	.rodata
	.type	_ZNSt8__detail30__integer_to_chars_is_unsignedIjEE, @object
	.size	_ZNSt8__detail30__integer_to_chars_is_unsignedIjEE, 1
_ZNSt8__detail30__integer_to_chars_is_unsignedIjEE:
	.byte	1
	.type	_ZNSt8__detail30__integer_to_chars_is_unsignedImEE, @object
	.size	_ZNSt8__detail30__integer_to_chars_is_unsignedImEE, 1
_ZNSt8__detail30__integer_to_chars_is_unsignedImEE:
	.byte	1
	.type	_ZNSt8__detail30__integer_to_chars_is_unsignedIyEE, @object
	.size	_ZNSt8__detail30__integer_to_chars_is_unsignedIyEE, 1
_ZNSt8__detail30__integer_to_chars_is_unsignedIyEE:
	.byte	1
	.ident	"GCC: (GNU) 13.2.1 20240316 (Red Hat 13.2.1-7)"
	.section	.note.GNU-stack,"",@progbits
